target datalayout = "e-m:e-p270:32:32-p271:32:32-p272:64:64-i64:64-i128:128-f80:128-n8:16:32:64-S128"
target triple = "x86_64-unknown-linux-gnu"

@stderr = external global ptr, align 8
@.str = private unnamed_addr constant [2 x i8] c"\0A\00", align 1
@.str.17 = private unnamed_addr constant [8 x i8] c"%s:%d: \00", align 1
@.str.18 = private unnamed_addr constant [6 x i8] c"%.*s\0A\00", align 1
@.str.19 = private unnamed_addr constant [4 x i8] c"%*s\00", align 1
@.str.20 = private unnamed_addr constant [1 x i8] zeroinitializer, align 1
@.str.21 = private unnamed_addr constant [3 x i8] c"^ \00", align 1

; Function Attrs: nounwind uwtable
define internal void @verror_at(ptr noundef %filename, ptr noundef %input, i32 noundef %line_no, ptr noundef %loc, ptr noundef %fmt, ptr noundef %ap) #4 {
entry:
  %filename.addr = alloca ptr, align 8
  %input.addr = alloca ptr, align 8
  %line_no.addr = alloca i32, align 4
  %loc.addr = alloca ptr, align 8
  %fmt.addr = alloca ptr, align 8
  %ap.addr = alloca ptr, align 8
  %line = alloca ptr, align 8
  %end = alloca ptr, align 8
  %indent = alloca i32, align 4
  %pos = alloca i32, align 4
  store ptr %filename, ptr %filename.addr, align 8
  store ptr %input, ptr %input.addr, align 8
  store i32 %line_no, ptr %line_no.addr, align 4
  store ptr %loc, ptr %loc.addr, align 8
  store ptr %fmt, ptr %fmt.addr, align 8
  store ptr %ap, ptr %ap.addr, align 8
  %0 = load ptr, ptr %loc.addr, align 8
  store ptr %0, ptr %line, align 8
  br label %while.cond

while.cond:                                       ; preds = %while.body, %entry
  %1 = load ptr, ptr %input.addr, align 8
  %2 = load ptr, ptr %line, align 8
  %cmp = icmp ult ptr %1, %2
  br i1 %cmp, label %land.rhs, label %land.end

land.rhs:                                         ; preds = %while.cond
  %3 = load ptr, ptr %line, align 8
  %arrayidx = getelementptr inbounds i8, ptr %3, i64 -1
  %4 = load i8, ptr %arrayidx, align 1
  %conv = sext i8 %4 to i32
  %cmp1 = icmp ne i32 %conv, 10
  br label %land.end

land.end:                                         ; preds = %land.rhs, %while.cond
  %5 = phi i1 [ false, %while.cond ], [ %cmp1, %land.rhs ]
  br i1 %5, label %while.body, label %while.end

while.body:                                       ; preds = %land.end
  %6 = load ptr, ptr %line, align 8
  %incdec.ptr = getelementptr inbounds i8, ptr %6, i32 -1
  store ptr %incdec.ptr, ptr %line, align 8
  br label %while.cond, !llvm.loop !9

while.end:                                        ; preds = %land.end
  %7 = load ptr, ptr %loc.addr, align 8
  store ptr %7, ptr %end, align 8
  br label %while.cond3

while.cond3:                                      ; preds = %while.body10, %while.end
  %8 = load ptr, ptr %end, align 8
  %9 = load i8, ptr %8, align 1
  %conv4 = sext i8 %9 to i32
  %tobool = icmp ne i32 %conv4, 0
  br i1 %tobool, label %land.rhs5, label %land.end9

land.rhs5:                                        ; preds = %while.cond3
  %10 = load ptr, ptr %end, align 8
  %11 = load i8, ptr %10, align 1
  %conv6 = sext i8 %11 to i32
  %cmp7 = icmp ne i32 %conv6, 10
  br label %land.end9

land.end9:                                        ; preds = %land.rhs5, %while.cond3
  %12 = phi i1 [ false, %while.cond3 ], [ %cmp7, %land.rhs5 ]
  br i1 %12, label %while.body10, label %while.end12

while.body10:                                     ; preds = %land.end9
  %13 = load ptr, ptr %end, align 8
  %incdec.ptr11 = getelementptr inbounds i8, ptr %13, i32 1
  store ptr %incdec.ptr11, ptr %end, align 8
  br label %while.cond3, !llvm.loop !10

while.end12:                                      ; preds = %land.end9
  %14 = load ptr, ptr @stderr, align 8
  %15 = load ptr, ptr %filename.addr, align 8
  %16 = load i32, ptr %line_no.addr, align 4
  %call = call i32 (ptr, ptr, ...) @fprintf(ptr noundef %14, ptr noundef @.str.17, ptr noundef %15, i32 noundef %16)
  store i32 %call, ptr %indent, align 4
  %17 = load ptr, ptr @stderr, align 8
  %18 = load ptr, ptr %end, align 8
  %19 = load ptr, ptr %line, align 8
  %sub.ptr.lhs.cast = ptrtoint ptr %18 to i64
  %sub.ptr.rhs.cast = ptrtoint ptr %19 to i64
  %sub.ptr.sub = sub i64 %sub.ptr.lhs.cast, %sub.ptr.rhs.cast
  %conv13 = trunc i64 %sub.ptr.sub to i32
  %20 = load ptr, ptr %line, align 8
  %call14 = call i32 (ptr, ptr, ...) @fprintf(ptr noundef %17, ptr noundef @.str.18, i32 noundef %conv13, ptr noundef %20)
  %21 = load ptr, ptr %line, align 8
  %22 = load ptr, ptr %loc.addr, align 8
  %23 = load ptr, ptr %line, align 8
  %sub.ptr.lhs.cast15 = ptrtoint ptr %22 to i64
  %sub.ptr.rhs.cast16 = ptrtoint ptr %23 to i64
  %sub.ptr.sub17 = sub i64 %sub.ptr.lhs.cast15, %sub.ptr.rhs.cast16
  %conv18 = trunc i64 %sub.ptr.sub17 to i32
  %call19 = call i32 @display_width(ptr noundef %21, i32 noundef %conv18)
  %24 = load i32, ptr %indent, align 4
  %add = add nsw i32 %call19, %24
  store i32 %add, ptr %pos, align 4
  %25 = load ptr, ptr @stderr, align 8
  %26 = load i32, ptr %pos, align 4
  %call20 = call i32 (ptr, ptr, ...) @fprintf(ptr noundef %25, ptr noundef @.str.19, i32 noundef %26, ptr noundef @.str.20)
  %27 = load ptr, ptr @stderr, align 8
  %call21 = call i32 (ptr, ptr, ...) @fprintf(ptr noundef %27, ptr noundef @.str.21)
  %28 = load ptr, ptr @stderr, align 8
  %29 = load ptr, ptr %fmt.addr, align 8
  %30 = load ptr, ptr %ap.addr, align 8
  %call22 = call i32 @vfprintf(ptr noundef %28, ptr noundef %29, ptr noundef %30)
  %31 = load ptr, ptr @stderr, align 8
  %call23 = call i32 (ptr, ptr, ...) @fprintf(ptr noundef %31, ptr noundef @.str)
  ret void
}