; Function Attrs: nounwind uwtable
define internal fastcc void @verror_at(ptr noundef %filename, ptr noundef readnone %input, i32 noundef %line_no, ptr noundef %loc, ptr nocapture noundef readonly %fmt, ptr noundef %ap) unnamed_addr #4 {
entry:
  br label %while.cond

while.cond:                                       ; preds = %land.rhs, %entry
  %line.0 = phi ptr [ %loc, %entry ], [ %arrayidx, %land.rhs ]
  %cmp = icmp ugt ptr %line.0, %input
  br i1 %cmp, label %land.rhs, label %while.cond3.preheader

land.rhs:                                         ; preds = %while.cond
  %arrayidx = getelementptr inbounds i8, ptr %line.0, i64 -1
  %0 = load i8, ptr %arrayidx, align 1
  %cmp1.not = icmp eq i8 %0, 10
  br i1 %cmp1.not, label %while.cond3.preheader, label %while.cond, !llvm.loop !9

while.cond3.preheader:                            ; preds = %while.cond, %land.rhs
  br label %while.cond3

while.cond3:                                      ; preds = %while.cond3.preheader, %while.body10
  %end.0 = phi ptr [ %incdec.ptr11, %while.body10 ], [ %loc, %while.cond3.preheader ]
  %1 = load i8, ptr %end.0, align 1
  switch i8 %1, label %while.body10 [
    i8 0, label %while.end12
    i8 10, label %while.end12
  ]

while.body10:                                     ; preds = %while.cond3
  %incdec.ptr11 = getelementptr inbounds i8, ptr %end.0, i64 1
  br label %while.cond3, !llvm.loop !10

while.end12:                                      ; preds = %while.cond3, %while.cond3
  %2 = load ptr, ptr @stderr, align 8
  %call = tail call i32 (ptr, ptr, ...) @fprintf(ptr noundef %2, ptr noundef nonnull @.str.17, ptr noundef %filename, i32 noundef %line_no) #23
  %3 = load ptr, ptr @stderr, align 8
  %sub.ptr.lhs.cast = ptrtoint ptr %end.0 to i64
  %sub.ptr.rhs.cast = ptrtoint ptr %line.0 to i64
  %sub.ptr.sub = sub i64 %sub.ptr.lhs.cast, %sub.ptr.rhs.cast
  %conv13 = trunc i64 %sub.ptr.sub to i32
  %call14 = tail call i32 (ptr, ptr, ...) @fprintf(ptr noundef %3, ptr noundef nonnull @.str.18, i32 noundef %conv13, ptr noundef %line.0) #23
  %sub.ptr.lhs.cast15 = ptrtoint ptr %loc to i64
  %sub.ptr.sub17 = sub i64 %sub.ptr.lhs.cast15, %sub.ptr.rhs.cast
  %conv18 = trunc i64 %sub.ptr.sub17 to i32
  %call19 = tail call i32 @display_width(ptr noundef %line.0, i32 noundef %conv18) #25
  %add = add nsw i32 %call19, %call
  %4 = load ptr, ptr @stderr, align 8
  %call20 = tail call i32 (ptr, ptr, ...) @fprintf(ptr noundef %4, ptr noundef nonnull @.str.19, i32 noundef %add, ptr noundef nonnull @.str.20) #23
  %5 = load ptr, ptr @stderr, align 8
  %6 = tail call i64 @fwrite(ptr nonnull @.str.21, i64 2, i64 1, ptr %5) #23
  %7 = load ptr, ptr @stderr, align 8
  %call22 = tail call i32 @vfprintf(ptr noundef %7, ptr noundef %fmt, ptr noundef %ap) #23
  %8 = load ptr, ptr @stderr, align 8
  %fputc = tail call i32 @fputc(i32 10, ptr %8)
  ret void
}